; ModuleID = '10/2127.c'
source_filename = "10/2127.c"
target datalayout = "e-m:e-p270:32:32-p271:32:32-p272:64:64-i64:64-f80:128-n8:16:32:64-S128"
target triple = "x86_64-pc-linux-gnu"

@N = dso_local constant i32 35, align 4
@.str = private unnamed_addr constant [3 x i8] c"%d\00", align 1
@h = common dso_local global [35 x i32] zeroinitializer, align 16
@dp = common dso_local global [35 x i32] zeroinitializer, align 16
@.str.1 = private unnamed_addr constant [4 x i8] c"%d\0A\00", align 1

; Function Attrs: noinline nounwind uwtable
define dso_local i32 @main() #0 {
  %1 = alloca i32, align 4
  %2 = alloca i32, align 4
  %3 = alloca i32, align 4
  %4 = alloca i32, align 4
  %5 = alloca i32, align 4
  store i32 0, i32* %1, align 4
  br label %6

6:                                                ; preds = %82, %0
  %7 = call i32 (i8*, ...) @__isoc99_scanf(i8* getelementptr inbounds ([3 x i8], [3 x i8]* @.str, i64 0, i64 0), i32* %3)
  %8 = icmp ne i32 %7, -1
  br i1 %8, label %9, label %85

9:                                                ; preds = %6
  store i32 0, i32* %4, align 4
  br label %10

10:                                               ; preds = %19, %9
  %11 = load i32, i32* %4, align 4
  %12 = load i32, i32* %3, align 4
  %13 = icmp slt i32 %11, %12
  br i1 %13, label %14, label %22

14:                                               ; preds = %10
  %15 = load i32, i32* %4, align 4
  %16 = sext i32 %15 to i64
  %17 = getelementptr inbounds i32, i32* getelementptr inbounds ([35 x i32], [35 x i32]* @h, i64 0, i64 0), i64 %16
  %18 = call i32 (i8*, ...) @__isoc99_scanf(i8* getelementptr inbounds ([3 x i8], [3 x i8]* @.str, i64 0, i64 0), i32* %17)
  br label %19

19:                                               ; preds = %14
  %20 = load i32, i32* %4, align 4
  %21 = add nsw i32 %20, 1
  store i32 %21, i32* %4, align 4
  br label %10

22:                                               ; preds = %10
  store i32 1, i32* getelementptr inbounds ([35 x i32], [35 x i32]* @dp, i64 0, i64 0), align 16
  store i32 1, i32* %4, align 4
  br label %23

23:                                               ; preds = %64, %22
  %24 = load i32, i32* %4, align 4
  %25 = load i32, i32* %3, align 4
  %26 = icmp slt i32 %24, %25
  br i1 %26, label %27, label %67

27:                                               ; preds = %23
  %28 = load i32, i32* %4, align 4
  %29 = sext i32 %28 to i64
  %30 = getelementptr inbounds [35 x i32], [35 x i32]* @dp, i64 0, i64 %29
  store i32 1, i32* %30, align 4
  store i32 0, i32* %5, align 4
  br label %31

31:                                               ; preds = %60, %27
  %32 = load i32, i32* %5, align 4
  %33 = load i32, i32* %4, align 4
  %34 = icmp slt i32 %32, %33
  br i1 %34, label %35, label %63

35:                                               ; preds = %31
  %36 = load i32, i32* %4, align 4
  %37 = sext i32 %36 to i64
  %38 = getelementptr inbounds [35 x i32], [35 x i32]* @h, i64 0, i64 %37
  %39 = load i32, i32* %38, align 4
  %40 = load i32, i32* %5, align 4
  %41 = sext i32 %40 to i64
  %42 = getelementptr inbounds [35 x i32], [35 x i32]* @h, i64 0, i64 %41
  %43 = load i32, i32* %42, align 4
  %44 = icmp sle i32 %39, %43
  br i1 %44, label %45, label %59

45:                                               ; preds = %35
  %46 = load i32, i32* %4, align 4
  %47 = sext i32 %46 to i64
  %48 = getelementptr inbounds [35 x i32], [35 x i32]* @dp, i64 0, i64 %47
  %49 = load i32, i32* %48, align 4
  %50 = load i32, i32* %5, align 4
  %51 = sext i32 %50 to i64
  %52 = getelementptr inbounds [35 x i32], [35 x i32]* @dp, i64 0, i64 %51
  %53 = load i32, i32* %52, align 4
  %54 = add nsw i32 %53, 1
  %55 = call i32 (i32, i32, ...) bitcast (i32 (...)* @max to i32 (i32, i32, ...)*)(i32 %49, i32 %54)
  %56 = load i32, i32* %4, align 4
  %57 = sext i32 %56 to i64
  %58 = getelementptr inbounds [35 x i32], [35 x i32]* @dp, i64 0, i64 %57
  store i32 %55, i32* %58, align 4
  br label %59

59:                                               ; preds = %45, %35
  br label %60

60:                                               ; preds = %59
  %61 = load i32, i32* %5, align 4
  %62 = add nsw i32 %61, 1
  store i32 %62, i32* %5, align 4
  br label %31

63:                                               ; preds = %31
  br label %64

64:                                               ; preds = %63
  %65 = load i32, i32* %4, align 4
  %66 = add nsw i32 %65, 1
  store i32 %66, i32* %4, align 4
  br label %23

67:                                               ; preds = %23
  store i32 0, i32* %2, align 4
  store i32 0, i32* %4, align 4
  br label %68

68:                                               ; preds = %79, %67
  %69 = load i32, i32* %4, align 4
  %70 = load i32, i32* %3, align 4
  %71 = icmp slt i32 %69, %70
  br i1 %71, label %72, label %82

72:                                               ; preds = %68
  %73 = load i32, i32* %2, align 4
  %74 = load i32, i32* %4, align 4
  %75 = sext i32 %74 to i64
  %76 = getelementptr inbounds [35 x i32], [35 x i32]* @dp, i64 0, i64 %75
  %77 = load i32, i32* %76, align 4
  %78 = call i32 (i32, i32, ...) bitcast (i32 (...)* @max to i32 (i32, i32, ...)*)(i32 %73, i32 %77)
  store i32 %78, i32* %2, align 4
  br label %79

79:                                               ; preds = %72
  %80 = load i32, i32* %4, align 4
  %81 = add nsw i32 %80, 1
  store i32 %81, i32* %4, align 4
  br label %68

82:                                               ; preds = %68
  %83 = load i32, i32* %2, align 4
  %84 = call i32 (i8*, ...) @printf(i8* getelementptr inbounds ([4 x i8], [4 x i8]* @.str.1, i64 0, i64 0), i32 %83)
  br label %6

85:                                               ; preds = %6
  ret i32 0
}

declare dso_local i32 @__isoc99_scanf(i8*, ...) #1

declare dso_local i32 @max(...) #1

declare dso_local i32 @printf(i8*, ...) #1


!llvm.module.flags = !{!0}
!llvm.ident = !{!1}

!0 = !{i32 1, !"wchar_size", i32 4}
!1 = !{!"clang version 10.0.0-4ubuntu1 "}
